target datalayout = "e-m:e-p270:32:32-p271:32:32-p272:64:64-i64:64-i128:128-f80:128-n8:16:32:64-S128"
target triple = "x86_64-pc-linux-gnu"

%struct._php_stream = type { ptr, ptr, %struct._php_stream_filter_chain, %struct._php_stream_filter_chain, ptr, ptr, %struct._zval_struct, i16, [16 x i8], i32, ptr, ptr, ptr, ptr, i64, ptr, i64, i64, i64, i64, ptr }
%struct._php_stream_filter_chain = type { ptr, ptr, ptr }
%struct._zval_struct = type { %union._zend_value, %union.anon, %union.anon.2 }
%union._zend_value = type { i64 }
%union.anon = type { i32 }
%union.anon.2 = type { i32 }
%struct.php_stdio_stream_data = type { ptr, i32, i32, i32, ptr, ptr, i64, %struct.stat }
%struct.stat = type { i64, i64, i64, i32, i32, i32, i32, i64, i64, i64, i64, %struct.timespec, %struct.timespec, %struct.timespec, [3 x i64] }
%struct.timespec = type { i64, i64 }

@.str.10 = private unnamed_addr constant [42 x i8] c"Read of %zu bytes failed with errno=%d %s\00", align 1

; Function Attrs: nounwind uwtable
define internal i64 @php_stdiop_read(ptr noundef %0, ptr noundef %1, i64 noundef %2) #0 {
  %4 = alloca ptr, align 8
  %5 = alloca ptr, align 8
  %6 = alloca i64, align 8
  %7 = alloca ptr, align 8
  %8 = alloca i64, align 8
  store ptr %0, ptr %4, align 8, !tbaa !18
  store ptr %1, ptr %5, align 8, !tbaa !4
  store i64 %2, ptr %6, align 8, !tbaa !52
  call void @llvm.lifetime.start.p0(i64 8, ptr %7) #13
  %9 = load ptr, ptr %4, align 8, !tbaa !18
  %10 = getelementptr inbounds nuw %struct._php_stream, ptr %9, i32 0, i32 1
  %11 = load ptr, ptr %10, align 8, !tbaa !20
  store ptr %11, ptr %7, align 8, !tbaa !31
  call void @llvm.lifetime.start.p0(i64 8, ptr %8) #13
  %12 = load ptr, ptr %7, align 8, !tbaa !31
  %13 = getelementptr inbounds nuw %struct.php_stdio_stream_data, ptr %12, i32 0, i32 1
  %14 = load i32, ptr %13, align 8, !tbaa !43
  %15 = icmp sge i32 %14, 0
  br i1 %15, label %16, label %86

16:                                               ; preds = %3
  %17 = load ptr, ptr %7, align 8, !tbaa !31
  %18 = getelementptr inbounds nuw %struct.php_stdio_stream_data, ptr %17, i32 0, i32 1
  %19 = load i32, ptr %18, align 8, !tbaa !43
  %20 = load ptr, ptr %5, align 8, !tbaa !4
  %21 = load i64, ptr %6, align 8, !tbaa !52
  %22 = call i64 @read(i32 noundef %19, ptr noundef %20, i64 noundef %21)
  store i64 %22, ptr %8, align 8, !tbaa !52
  %23 = load i64, ptr %8, align 8, !tbaa !52
  %24 = icmp eq i64 %23, -1
  br i1 %24, label %25, label %36

25:                                               ; preds = %16
  %26 = call ptr @__errno_location() #16
  %27 = load i32, ptr %26, align 4, !tbaa !12
  %28 = icmp eq i32 %27, 4
  br i1 %28, label %29, label %36

29:                                               ; preds = %25
  %30 = load ptr, ptr %7, align 8, !tbaa !31
  %31 = getelementptr inbounds nuw %struct.php_stdio_stream_data, ptr %30, i32 0, i32 1
  %32 = load i32, ptr %31, align 8, !tbaa !43
  %33 = load ptr, ptr %5, align 8, !tbaa !4
  %34 = load i64, ptr %6, align 8, !tbaa !52
  %35 = call i64 @read(i32 noundef %32, ptr noundef %33, i64 noundef %34)
  store i64 %35, ptr %8, align 8, !tbaa !52
  br label %36

36:                                               ; preds = %29, %25, %16
  %37 = load i64, ptr %8, align 8, !tbaa !52
  %38 = icmp slt i64 %37, 0
  br i1 %38, label %39, label %75

39:                                               ; preds = %36
  %40 = call ptr @__errno_location() #16
  %41 = load i32, ptr %40, align 4, !tbaa !12
  %42 = icmp eq i32 %41, 11
  br i1 %42, label %43, label %44

43:                                               ; preds = %39
  store i64 0, ptr %8, align 8, !tbaa !52
  br label %74

44:                                               ; preds = %39
  %45 = call ptr @__errno_location() #16
  %46 = load i32, ptr %45, align 4, !tbaa !12
  %47 = icmp eq i32 %46, 4
  br i1 %47, label %48, label %49

48:                                               ; preds = %44
  br label %73

49:                                               ; preds = %44
  %50 = load ptr, ptr %4, align 8, !tbaa !18
  %51 = getelementptr inbounds nuw %struct._php_stream, ptr %50, i32 0, i32 9
  %52 = load i32, ptr %51, align 4, !tbaa !46
  %53 = and i32 %52, 256
  %54 = icmp ne i32 %53, 0
  br i1 %54, label %62, label %55

55:                                               ; preds = %49
  %56 = load i64, ptr %6, align 8, !tbaa !52
  %57 = call ptr @__errno_location() #16
  %58 = load i32, ptr %57, align 4, !tbaa !12
  %59 = call ptr @__errno_location() #16
  %60 = load i32, ptr %59, align 4, !tbaa !12
  %61 = call ptr @strerror(i32 noundef %60) #13
  call void (ptr, i32, ptr, ...) @php_error_docref(ptr noundef null, i32 noundef 8, ptr noundef @.str.10, i64 noundef %56, i32 noundef %58, ptr noundef %61)
  br label %62

62:                                               ; preds = %55, %49
  %63 = call ptr @__errno_location() #16
  %64 = load i32, ptr %63, align 4, !tbaa !12
  %65 = icmp ne i32 %64, 9
  br i1 %65, label %66, label %72

66:                                               ; preds = %62
  %67 = load ptr, ptr %4, align 8, !tbaa !18
  %68 = getelementptr inbounds nuw %struct._php_stream, ptr %67, i32 0, i32 7
  %69 = load i16, ptr %68, align 8
  %70 = and i16 %69, -9
  %71 = or i16 %70, 8
  store i16 %71, ptr %68, align 8
  br label %72

72:                                               ; preds = %66, %62
  br label %73

73:                                               ; preds = %72, %48
  br label %74

74:                                               ; preds = %73, %43
  br label %85

75:                                               ; preds = %36
  %76 = load i64, ptr %8, align 8, !tbaa !52
  %77 = icmp eq i64 %76, 0
  br i1 %77, label %78, label %84

78:                                               ; preds = %75
  %79 = load ptr, ptr %4, align 8, !tbaa !18
  %80 = getelementptr inbounds nuw %struct._php_stream, ptr %79, i32 0, i32 7
  %81 = load i16, ptr %80, align 8
  %82 = and i16 %81, -9
  %83 = or i16 %82, 8
  store i16 %83, ptr %80, align 8
  br label %84

84:                                               ; preds = %78, %75
  br label %85

85:                                               ; preds = %84, %74
  br label %105

86:                                               ; preds = %3
  %87 = load ptr, ptr %5, align 8, !tbaa !4
  %88 = load i64, ptr %6, align 8, !tbaa !52
  %89 = load ptr, ptr %7, align 8, !tbaa !31
  %90 = getelementptr inbounds nuw %struct.php_stdio_stream_data, ptr %89, i32 0, i32 0
  %91 = load ptr, ptr %90, align 8, !tbaa !42
  %92 = call i64 @fread(ptr noundef %87, i64 noundef 1, i64 noundef %88, ptr noundef %91)
  store i64 %92, ptr %8, align 8, !tbaa !52
  %93 = load ptr, ptr %7, align 8, !tbaa !31
  %94 = getelementptr inbounds nuw %struct.php_stdio_stream_data, ptr %93, i32 0, i32 0
  %95 = load ptr, ptr %94, align 8, !tbaa !42
  %96 = call i32 @feof(ptr noundef %95) #13
  %97 = trunc i32 %96 to i16
  %98 = load ptr, ptr %4, align 8, !tbaa !18
  %99 = getelementptr inbounds nuw %struct._php_stream, ptr %98, i32 0, i32 7
  %100 = load i16, ptr %99, align 8
  %101 = and i16 %97, 1
  %102 = shl i16 %101, 3
  %103 = and i16 %100, -9
  %104 = or i16 %103, %102
  store i16 %104, ptr %99, align 8
  br label %105

105:                                              ; preds = %86, %85
  %106 = load i64, ptr %8, align 8, !tbaa !52
  call void @llvm.lifetime.end.p0(i64 8, ptr %8) #13
  call void @llvm.lifetime.end.p0(i64 8, ptr %7) #13
  ret i64 %106
}