; Function Attrs: nounwind uwtable
define internal noundef i64 @php_stdiop_read(ptr noundef captures(none) %0, ptr noundef captures(none) %1, i64 noundef %2) #3 {
  %4 = getelementptr inbounds nuw i8, ptr %0, i64 8
  %5 = load ptr, ptr %4, align 8, !tbaa !20
  %6 = getelementptr inbounds nuw i8, ptr %5, i64 8
  %7 = load i32, ptr %6, align 8, !tbaa !19
  %8 = icmp sgt i32 %7, -1
  br i1 %8, label %9, label %40

9:                                                ; preds = %3
  %10 = tail call i64 @read(i32 noundef %7, ptr noundef %1, i64 noundef %2) #17
  %11 = icmp eq i64 %10, -1
  br i1 %11, label %12, label %19

12:                                               ; preds = %9
  %13 = tail call ptr @__errno_location() #19
  %14 = load i32, ptr %13, align 4, !tbaa !7
  %15 = icmp eq i32 %14, 4
  br i1 %15, label %16, label %.thread

16:                                               ; preds = %12
  %17 = load i32, ptr %6, align 8, !tbaa !19
  %18 = tail call i64 @read(i32 noundef %17, ptr noundef %1, i64 noundef %2) #17
  br label %19

19:                                               ; preds = %16, %9
  %.0 = phi i64 [ %18, %16 ], [ %10, %9 ]
  %20 = icmp slt i64 %.0, 0
  br i1 %20, label %..thread_crit_edge, label %34

..thread_crit_edge:                               ; preds = %19
  %.pre27 = tail call ptr @__errno_location() #19
  %.pr = load i32, ptr %.pre27, align 4, !tbaa !7
  br label %.thread

.thread:                                          ; preds = %..thread_crit_edge, %12
  %21 = phi i32 [ %.pr, %..thread_crit_edge ], [ %14, %12 ]
  %.pre-phi = phi ptr [ %.pre27, %..thread_crit_edge ], [ %13, %12 ]
  %.026 = phi i64 [ %.0, %..thread_crit_edge ], [ -1, %12 ]
  switch i32 %21, label %22 [
    i32 11, label %52
    i32 4, label %.fold.split
  ]

22:                                               ; preds = %.thread
  %23 = getelementptr inbounds nuw i8, ptr %0, i64 116
  %24 = load i32, ptr %23, align 4, !tbaa !38
  %25 = and i32 %24, 256
  %.not = icmp eq i32 %25, 0
  br i1 %.not, label %26, label %28

26:                                               ; preds = %22
  %27 = tail call ptr @strerror(i32 noundef %21) #17
  tail call void (ptr, i32, ptr, ...) @php_error_docref(ptr noundef null, i32 noundef 8, ptr noundef nonnull @.str.10, i64 noundef %2, i32 noundef %21, ptr noundef %27) #17
  %.pre = load i32, ptr %.pre-phi, align 4, !tbaa !7
  br label %28

28:                                               ; preds = %26, %22
  %29 = phi i32 [ %.pre, %26 ], [ %21, %22 ]
  %.not24 = icmp eq i32 %29, 9
  br i1 %.not24, label %52, label %30

30:                                               ; preds = %28
  %31 = getelementptr inbounds nuw i8, ptr %0, i64 96
  %32 = load i16, ptr %31, align 8
  %33 = or i16 %32, 8
  store i16 %33, ptr %31, align 8
  br label %52

34:                                               ; preds = %19
  %35 = icmp eq i64 %.0, 0
  br i1 %35, label %36, label %52

36:                                               ; preds = %34
  %37 = getelementptr inbounds nuw i8, ptr %0, i64 96
  %38 = load i16, ptr %37, align 8
  %39 = or i16 %38, 8
  store i16 %39, ptr %37, align 8
  br label %52

40:                                               ; preds = %3
  %41 = load ptr, ptr %5, align 8, !tbaa !36
  %42 = tail call i64 @fread(ptr noundef %1, i64 noundef 1, i64 noundef %2, ptr noundef %41)
  %43 = load ptr, ptr %5, align 8, !tbaa !36
  %44 = tail call i32 @feof(ptr noundef %43) #17
  %45 = trunc i32 %44 to i16
  %46 = getelementptr inbounds nuw i8, ptr %0, i64 96
  %47 = load i16, ptr %46, align 8
  %48 = shl i16 %45, 3
  %49 = and i16 %48, 8
  %50 = and i16 %47, -9
  %51 = or disjoint i16 %49, %50
  store i16 %51, ptr %46, align 8
  br label %52

.fold.split:                                      ; preds = %.thread
  br label %52

52:                                               ; preds = %.thread, %.fold.split, %30, %28, %36, %34, %40
  %.1 = phi i64 [ %.026, %30 ], [ %.026, %28 ], [ 0, %36 ], [ %.0, %34 ], [ %42, %40 ], [ 0, %.thread ], [ %.026, %.fold.split ]
  ret i64 %.1
}